target datalayout = "e-m:e-p270:32:32-p271:32:32-p272:64:64-i64:64-i128:128-f80:128-n8:16:32:64-S128"
target triple = "x86_64-pc-linux-gnu"

%struct.archive_entry = type { ptr, ptr, i32, %struct.aest, i32, %struct.archive_mstring, i64, i64, %struct.archive_mstring, %struct.archive_mstring, %struct.archive_mstring, %struct.archive_mstring, %struct.archive_mstring, i8, ptr, i64, %struct.ae_digest, %struct.archive_acl, ptr, ptr, ptr, ptr, ptr, [12 x i8], i32 }
%struct.aest = type { i64, i32, i64, i32, i64, i32, i64, i32, i64, i64, i32, i64, i64, i32, i64, i64, i64, i32, i64, i64, i64 }
%struct.archive_mstring = type { %struct.archive_string, %struct.archive_string, %struct.archive_wstring, %struct.archive_string, i32 }
%struct.archive_wstring = type { ptr, i64, i64 }
%struct.archive_string = type { ptr, i64, i64 }
%struct.ae_digest = type { [16 x i8], [20 x i8], [20 x i8], [32 x i8], [48 x i8], [64 x i8] }
%struct.archive_acl = type { i32, ptr, ptr, i32, ptr, ptr, i32 }

; Function Attrs: inlinehint nounwind willreturn memory(none) uwtable
define available_externally i32 @gnu_dev_minor(i64 noundef %0) #7 {
  %2 = alloca i64, align 8
  %3 = alloca i32, align 4
  store i64 %0, ptr %2, align 8, !tbaa !27
  call void @llvm.lifetime.start.p0(i64 4, ptr %3) #13
  %4 = load i64, ptr %2, align 8, !tbaa !27
  %5 = and i64 %4, 255
  %6 = lshr i64 %5, 0
  %7 = trunc i64 %6 to i32
  store i32 %7, ptr %3, align 4, !tbaa !32
  %8 = load i64, ptr %2, align 8, !tbaa !27
  %9 = and i64 %8, 17592184995840
  %10 = lshr i64 %9, 12
  %11 = load i32, ptr %3, align 4, !tbaa !32
  %12 = zext i32 %11 to i64
  %13 = or i64 %12, %10
  %14 = trunc i64 %13 to i32
  store i32 %14, ptr %3, align 4, !tbaa !32
  %15 = load i32, ptr %3, align 4, !tbaa !32
  call void @llvm.lifetime.end.p0(i64 4, ptr %3) #13
  ret i32 %15
}

; Function Attrs: nounwind uwtable
define dso_local i32 @archive_entry_rdev_is_set(ptr noundef %0) #0 {
  %2 = alloca ptr, align 8
  store ptr %0, ptr %2, align 8, !tbaa !4
  %3 = load ptr, ptr %2, align 8, !tbaa !4
  %4 = getelementptr inbounds nuw %struct.archive_entry, ptr %3, i32 0, i32 4
  %5 = load i32, ptr %4, align 8, !tbaa !35
  %6 = and i32 %5, 8192
  ret i32 %6
}

; Function Attrs: nounwind uwtable
define dso_local i64 @archive_entry_rdevminor(ptr noundef %0) #0 {
  %2 = alloca i64, align 8
  %3 = alloca ptr, align 8
  store ptr %0, ptr %3, align 8, !tbaa !4
  %4 = load ptr, ptr %3, align 8, !tbaa !4
  %5 = call i32 @archive_entry_rdev_is_set(ptr noundef %4)
  %6 = icmp ne i32 %5, 0
  br i1 %6, label %7, label %25

7:                                                ; preds = %1
  %8 = load ptr, ptr %3, align 8, !tbaa !4
  %9 = getelementptr inbounds nuw %struct.archive_entry, ptr %8, i32 0, i32 3
  %10 = getelementptr inbounds nuw %struct.aest, ptr %9, i32 0, i32 17
  %11 = load i32, ptr %10, align 8, !tbaa !88
  %12 = icmp ne i32 %11, 0
  br i1 %12, label %13, label %18

13:                                               ; preds = %7
  %14 = load ptr, ptr %3, align 8, !tbaa !4
  %15 = getelementptr inbounds nuw %struct.archive_entry, ptr %14, i32 0, i32 3
  %16 = getelementptr inbounds nuw %struct.aest, ptr %15, i32 0, i32 20
  %17 = load i64, ptr %16, align 8, !tbaa !90
  store i64 %17, ptr %2, align 8
  br label %26

18:                                               ; preds = %7
  %19 = load ptr, ptr %3, align 8, !tbaa !4
  %20 = getelementptr inbounds nuw %struct.archive_entry, ptr %19, i32 0, i32 3
  %21 = getelementptr inbounds nuw %struct.aest, ptr %20, i32 0, i32 18
  %22 = load i64, ptr %21, align 8, !tbaa !91
  %23 = call i32 @gnu_dev_minor(i64 noundef %22) #17
  %24 = zext i32 %23 to i64
  store i64 %24, ptr %2, align 8
  br label %26

25:                                               ; preds = %1
  store i64 0, ptr %2, align 8
  br label %26

26:                                               ; preds = %25, %18, %13
  %27 = load i64, ptr %2, align 8
  ret i64 %27
}