; Function Attrs: mustprogress nofree norecurse nosync nounwind willreturn memory(argmem: read) uwtable
define dso_local i64 @archive_entry_rdevminor(ptr noundef readonly captures(none) %0) local_unnamed_addr #10 {
  %2 = getelementptr inbounds nuw i8, ptr %0, i64 192
  %3 = load i32, ptr %2, align 8, !tbaa !31
  %4 = and i32 %3, 8192
  %.not = icmp eq i32 %4, 0
  br i1 %.not, label %18, label %5

5:                                                ; preds = %1
  %6 = getelementptr inbounds nuw i8, ptr %0, i64 160
  %7 = load i32, ptr %6, align 8, !tbaa !72
  %.not4 = icmp eq i32 %7, 0
  br i1 %.not4, label %11, label %8

8:                                                ; preds = %5
  %9 = getelementptr inbounds nuw i8, ptr %0, i64 184
  %10 = load i64, ptr %9, align 8, !tbaa !74
  br label %18

11:                                               ; preds = %5
  %12 = getelementptr inbounds nuw i8, ptr %0, i64 168
  %13 = load i64, ptr %12, align 8, !tbaa !75
  %14 = and i64 %13, 255
  %15 = lshr i64 %13, 12
  %16 = and i64 %15, 4294967040
  %17 = or disjoint i64 %16, %14
  br label %18

18:                                               ; preds = %1, %11, %8
  %.0 = phi i64 [ %10, %8 ], [ %17, %11 ], [ 0, %1 ]
  ret i64 %.0
}